; Function Attrs: mustprogress uwtable
define hidden void @_ZNK19OpenColorIO_v2_5dev18GroupTransformImpl18createEditableCopyEv(ptr dead_on_unwind noalias writable writeonly sret(%"class.std::shared_ptr.13") align 8 captures(none) %0, ptr noundef nonnull align 8 dereferenceable(160) %1) unnamed_addr #0 align 2 personality ptr @__gxx_personality_v0 {
  %3 = alloca %"class.std::shared_ptr", align 8
  call void @llvm.lifetime.start.p0(i64 16, ptr nonnull %3) #24
  call void @_ZN19OpenColorIO_v2_5dev14GroupTransform6CreateEv(ptr dead_on_unwind nonnull writable sret(%"class.std::shared_ptr") align 8 %3)
  %4 = load ptr, ptr %3, align 8, !tbaa !34
  %5 = icmp eq ptr %4, null
  br i1 %5, label %8, label %6

6:                                                ; preds = %2
  %7 = tail call ptr @__dynamic_cast(ptr nonnull %4, ptr nonnull @_ZTIN19OpenColorIO_v2_5dev14GroupTransformE, ptr nonnull @_ZTIN19OpenColorIO_v2_5dev18GroupTransformImplE, i64 0) #24
  br label %8

8:                                                ; preds = %2, %6
  %9 = phi ptr [ %7, %6 ], [ null, %2 ]
  %10 = getelementptr inbounds nuw i8, ptr %1, i64 128
  %11 = load i32, ptr %10, align 8, !tbaa !6
  %12 = getelementptr inbounds nuw i8, ptr %9, i64 128
  store i32 %11, ptr %12, align 8, !tbaa !6
  %13 = getelementptr inbounds nuw i8, ptr %1, i64 136
  %14 = getelementptr inbounds nuw i8, ptr %9, i64 136
  %15 = invoke noundef nonnull align 8 dereferenceable(24) ptr @_ZNSt6vectorISt10shared_ptrIN19OpenColorIO_v2_5dev9TransformEESaIS3_EEaSERKS5_(ptr noundef nonnull align 8 dereferenceable(24) %14, ptr noundef nonnull align 8 dereferenceable(24) %13)
          to label %16 unwind label %24

16:                                               ; preds = %8
  %17 = getelementptr inbounds nuw i8, ptr %1, i64 8
  %18 = getelementptr inbounds nuw i8, ptr %9, i64 8
  %19 = invoke noundef nonnull align 8 dereferenceable(120) ptr @_ZN19OpenColorIO_v2_5dev18FormatMetadataImplaSERKS0_(ptr noundef nonnull align 8 dereferenceable(120) %18, ptr noundef nonnull align 8 dereferenceable(120) %17)
          to label %_ZNSt12__shared_ptrIN19OpenColorIO_v2_5dev14GroupTransformELN9__gnu_cxx12_Lock_policyE2EED2Ev.exit unwind label %24

_ZNSt12__shared_ptrIN19OpenColorIO_v2_5dev14GroupTransformELN9__gnu_cxx12_Lock_policyE2EED2Ev.exit: ; preds = %16
  %20 = load ptr, ptr %3, align 8, !tbaa !34
  store ptr %20, ptr %0, align 8, !tbaa !49
  %21 = getelementptr inbounds nuw i8, ptr %0, i64 8
  %22 = getelementptr inbounds nuw i8, ptr %3, i64 8
  %23 = load ptr, ptr %22, align 8, !tbaa !39
  store ptr %23, ptr %21, align 8, !tbaa !39
  call void @llvm.lifetime.end.p0(i64 16, ptr nonnull %3) #24
  ret void

24:                                               ; preds = %16, %8
  %25 = landingpad { ptr, i32 }
          cleanup
  call void @_ZNSt12__shared_ptrIN19OpenColorIO_v2_5dev14GroupTransformELN9__gnu_cxx12_Lock_policyE2EED2Ev(ptr noundef nonnull align 8 dereferenceable(16) %3) #24
  call void @llvm.lifetime.end.p0(i64 16, ptr nonnull %3) #24
  resume { ptr, i32 } %25
}